; ModuleID = '24/2633.c'
source_filename = "24/2633.c"
target datalayout = "e-m:e-p270:32:32-p271:32:32-p272:64:64-i64:64-f80:128-n8:16:32:64-S128"
target triple = "x86_64-pc-linux-gnu"

@.str = private unnamed_addr constant [3 x i8] c"%d\00", align 1
@.str.1 = private unnamed_addr constant [3 x i8] c"%s\00", align 1
@.str.2 = private unnamed_addr constant [7 x i8] c"%s\0A%s\0A\00", align 1

; Function Attrs: noinline nounwind uwtable
define dso_local i32 @main() #0 {
  %1 = alloca i32, align 4
  %2 = alloca [205 x [100 x i8]], align 16
  %3 = alloca i32, align 4
  %4 = alloca i32, align 4
  %5 = alloca i32, align 4
  %6 = alloca i32, align 4
  %7 = alloca i32, align 4
  %8 = alloca i32, align 4
  %9 = alloca i32, align 4
  %10 = alloca i32, align 4
  store i32 0, i32* %1, align 4
  store i32 0, i32* %5, align 4
  store i32 0, i32* %6, align 4
  store i32 0, i32* %7, align 4
  store i32 0, i32* %8, align 4
  %11 = call i32 (i8*, ...) @__isoc99_scanf(i8* getelementptr inbounds ([3 x i8], [3 x i8]* @.str, i64 0, i64 0), i32* %4)
  store i32 0, i32* %3, align 4
  br label %12

12:                                               ; preds = %23, %0
  %13 = load i32, i32* %3, align 4
  %14 = load i32, i32* %4, align 4
  %15 = icmp slt i32 %13, %14
  br i1 %15, label %16, label %26

16:                                               ; preds = %12
  %17 = getelementptr inbounds [205 x [100 x i8]], [205 x [100 x i8]]* %2, i64 0, i64 0
  %18 = load i32, i32* %3, align 4
  %19 = sext i32 %18 to i64
  %20 = getelementptr inbounds [100 x i8], [100 x i8]* %17, i64 %19
  %21 = getelementptr inbounds [100 x i8], [100 x i8]* %20, i64 0, i64 0
  %22 = call i32 (i8*, ...) @__isoc99_scanf(i8* getelementptr inbounds ([3 x i8], [3 x i8]* @.str.1, i64 0, i64 0), i8* %21)
  br label %23

23:                                               ; preds = %16
  %24 = load i32, i32* %3, align 4
  %25 = add nsw i32 %24, 1
  store i32 %25, i32* %3, align 4
  br label %12

26:                                               ; preds = %12
  %27 = getelementptr inbounds [205 x [100 x i8]], [205 x [100 x i8]]* %2, i64 0, i64 0
  %28 = getelementptr inbounds [100 x i8], [100 x i8]* %27, i64 0, i64 0
  %29 = call i64 @strlen(i8* %28) #3
  %30 = trunc i64 %29 to i32
  store i32 %30, i32* %9, align 4
  %31 = getelementptr inbounds [205 x [100 x i8]], [205 x [100 x i8]]* %2, i64 0, i64 0
  %32 = getelementptr inbounds [100 x i8], [100 x i8]* %31, i64 0, i64 0
  %33 = call i64 @strlen(i8* %32) #3
  %34 = trunc i64 %33 to i32
  store i32 %34, i32* %10, align 4
  store i32 1, i32* %3, align 4
  br label %35

35:                                               ; preds = %78, %26
  %36 = load i32, i32* %3, align 4
  %37 = load i32, i32* %4, align 4
  %38 = icmp slt i32 %36, %37
  br i1 %38, label %39, label %81

39:                                               ; preds = %35
  %40 = getelementptr inbounds [205 x [100 x i8]], [205 x [100 x i8]]* %2, i64 0, i64 0
  %41 = load i32, i32* %3, align 4
  %42 = sext i32 %41 to i64
  %43 = getelementptr inbounds [100 x i8], [100 x i8]* %40, i64 %42
  %44 = getelementptr inbounds [100 x i8], [100 x i8]* %43, i64 0, i64 0
  %45 = call i64 @strlen(i8* %44) #3
  %46 = load i32, i32* %9, align 4
  %47 = sext i32 %46 to i64
  %48 = icmp ugt i64 %45, %47
  br i1 %48, label %49, label %58

49:                                               ; preds = %39
  %50 = getelementptr inbounds [205 x [100 x i8]], [205 x [100 x i8]]* %2, i64 0, i64 0
  %51 = load i32, i32* %3, align 4
  %52 = sext i32 %51 to i64
  %53 = getelementptr inbounds [100 x i8], [100 x i8]* %50, i64 %52
  %54 = getelementptr inbounds [100 x i8], [100 x i8]* %53, i64 0, i64 0
  %55 = call i64 @strlen(i8* %54) #3
  %56 = trunc i64 %55 to i32
  store i32 %56, i32* %9, align 4
  %57 = load i32, i32* %3, align 4
  store i32 %57, i32* %7, align 4
  br label %58

58:                                               ; preds = %49, %39
  %59 = getelementptr inbounds [205 x [100 x i8]], [205 x [100 x i8]]* %2, i64 0, i64 0
  %60 = load i32, i32* %3, align 4
  %61 = sext i32 %60 to i64
  %62 = getelementptr inbounds [100 x i8], [100 x i8]* %59, i64 %61
  %63 = getelementptr inbounds [100 x i8], [100 x i8]* %62, i64 0, i64 0
  %64 = call i64 @strlen(i8* %63) #3
  %65 = load i32, i32* %10, align 4
  %66 = sext i32 %65 to i64
  %67 = icmp ult i64 %64, %66
  br i1 %67, label %68, label %77

68:                                               ; preds = %58
  %69 = getelementptr inbounds [205 x [100 x i8]], [205 x [100 x i8]]* %2, i64 0, i64 0
  %70 = load i32, i32* %3, align 4
  %71 = sext i32 %70 to i64
  %72 = getelementptr inbounds [100 x i8], [100 x i8]* %69, i64 %71
  %73 = getelementptr inbounds [100 x i8], [100 x i8]* %72, i64 0, i64 0
  %74 = call i64 @strlen(i8* %73) #3
  %75 = trunc i64 %74 to i32
  store i32 %75, i32* %10, align 4
  %76 = load i32, i32* %3, align 4
  store i32 %76, i32* %8, align 4
  br label %77

77:                                               ; preds = %68, %58
  br label %78

78:                                               ; preds = %77
  %79 = load i32, i32* %3, align 4
  %80 = add nsw i32 %79, 1
  store i32 %80, i32* %3, align 4
  br label %35

81:                                               ; preds = %35
  %82 = getelementptr inbounds [205 x [100 x i8]], [205 x [100 x i8]]* %2, i64 0, i64 0
  %83 = load i32, i32* %7, align 4
  %84 = sext i32 %83 to i64
  %85 = getelementptr inbounds [100 x i8], [100 x i8]* %82, i64 %84
  %86 = getelementptr inbounds [100 x i8], [100 x i8]* %85, i64 0, i64 0
  %87 = getelementptr inbounds [205 x [100 x i8]], [205 x [100 x i8]]* %2, i64 0, i64 0
  %88 = load i32, i32* %8, align 4
  %89 = sext i32 %88 to i64
  %90 = getelementptr inbounds [100 x i8], [100 x i8]* %87, i64 %89
  %91 = getelementptr inbounds [100 x i8], [100 x i8]* %90, i64 0, i64 0
  %92 = call i32 (i8*, ...) @printf(i8* getelementptr inbounds ([7 x i8], [7 x i8]* @.str.2, i64 0, i64 0), i8* %86, i8* %91)
  ret i32 0
}

declare dso_local i32 @__isoc99_scanf(i8*, ...) #1

; Function Attrs: nounwind readonly
declare dso_local i64 @strlen(i8*) #2

declare dso_local i32 @printf(i8*, ...) #1


!llvm.module.flags = !{!0}
!llvm.ident = !{!1}

!0 = !{i32 1, !"wchar_size", i32 4}
!1 = !{!"clang version 10.0.0-4ubuntu1 "}
